target datalayout = "e-m:e-p270:32:32-p271:32:32-p272:64:64-i64:64-i128:128-f80:128-n8:16:32:64-S128"
target triple = "x86_64-pc-linux-gnu"

@proto_register_someip_sd.ett_sd = internal global [7 x ptr] [ptr @ett_someip_sd, ptr @ett_someip_sd_flags, ptr @ett_someip_sd_entries, ptr @ett_someip_sd_entry, ptr @ett_someip_sd_options, ptr @ett_someip_sd_option, ptr @ett_someip_sd_config_string], align 16
@.str.116 = private unnamed_addr constant [35 x i8] c"SOME/IP Service Discovery Protocol\00", align 1
@.str.117 = private unnamed_addr constant [11 x i8] c"SOME/IP-SD\00", align 1
@.str.118 = private unnamed_addr constant [9 x i8] c"someipsd\00", align 1
@proto_someip_sd = internal global i32 0, align 4
@.str.119 = private unnamed_addr constant [17 x i8] c"someipsd_entries\00", align 1
@tap_someip_sd_entries = internal global i32 -1, align 4
@someip_sd_handle = internal global ptr null, align 8
@someip_ignore_ports_udp = internal global ptr null, align 8
@.str.120 = private unnamed_addr constant [1 x i8] zeroinitializer, align 1
@.str.121 = private unnamed_addr constant [17 x i8] c"ports.udp.ignore\00", align 1
@.str.122 = private unnamed_addr constant [18 x i8] c"UDP Ports ignored\00", align 1
@.str.123 = private unnamed_addr constant [91 x i8] c"SOME/IP Ignore Port Ranges UDP. These ports are not automatically added by the SOME/IP-SD.\00", align 1
@someip_ignore_ports_tcp = internal global ptr null, align 8
@.str.124 = private unnamed_addr constant [17 x i8] c"ports.tcp.ignore\00", align 1
@.str.125 = private unnamed_addr constant [18 x i8] c"TCP Ports ignored\00", align 1
@.str.126 = private unnamed_addr constant [91 x i8] c"SOME/IP Ignore Port Ranges TCP. These ports are not automatically added by the SOME/IP-SD.\00", align 1

; Function Attrs: null_pointer_is_valid sspstrong uwtable
define hidden void @proto_register_someip_sd() #0 {
  %1 = alloca ptr, align 8
  %2 = alloca ptr, align 8
  call void @llvm.lifetime.start.p0(i64 8, ptr %1) #7
  call void @llvm.lifetime.start.p0(i64 8, ptr %2) #7
  %3 = call i32 @proto_register_protocol(ptr noundef @.str.116, ptr noundef @.str.117, ptr noundef @.str.118)
  store i32 %3, ptr @proto_someip_sd, align 4
  %4 = load i32, ptr @proto_someip_sd, align 4
  call void @proto_register_field_array(i32 noundef %4, ptr noundef @proto_register_someip_sd.hf_sd, i32 noundef 48)
  call void @proto_register_subtree_array(ptr noundef @proto_register_someip_sd.ett_sd, i32 noundef 7)
  %5 = load i32, ptr @proto_someip_sd, align 4
  %6 = call ptr @expert_register_protocol(i32 noundef %5)
  store ptr %6, ptr %2, align 8
  %7 = load ptr, ptr %2, align 8
  call void @expert_register_field_array(ptr noundef %7, ptr noundef @proto_register_someip_sd.ei_sd, i32 noundef 12)
  %8 = call i32 @register_tap(ptr noundef @.str.119)
  store i32 %8, ptr @tap_someip_sd_entries, align 4
  %9 = load i32, ptr @proto_someip_sd, align 4
  %10 = call ptr @register_dissector(ptr noundef @.str.118, ptr noundef @dissect_someip_sd_pdu, i32 noundef %9)
  store ptr %10, ptr @someip_sd_handle, align 8
  %11 = load i32, ptr @proto_someip_sd, align 4
  %12 = call ptr @prefs_register_protocol(i32 noundef %11, ptr noundef null)
  store ptr %12, ptr %1, align 8
  %13 = call ptr @wmem_epan_scope()
  %14 = call i32 @range_convert_str(ptr noundef %13, ptr noundef @someip_ignore_ports_udp, ptr noundef @.str.120, i32 noundef 65535)
  %15 = load ptr, ptr %1, align 8
  call void @prefs_register_range_preference(ptr noundef %15, ptr noundef @.str.121, ptr noundef @.str.122, ptr noundef @.str.123, ptr noundef @someip_ignore_ports_udp, i32 noundef 65535)
  %16 = call ptr @wmem_epan_scope()
  %17 = call i32 @range_convert_str(ptr noundef %16, ptr noundef @someip_ignore_ports_tcp, ptr noundef @.str.120, i32 noundef 65535)
  %18 = load ptr, ptr %1, align 8
  call void @prefs_register_range_preference(ptr noundef %18, ptr noundef @.str.124, ptr noundef @.str.125, ptr noundef @.str.126, ptr noundef @someip_ignore_ports_tcp, i32 noundef 65535)
  call void @llvm.lifetime.end.p0(i64 8, ptr %2) #7
  call void @llvm.lifetime.end.p0(i64 8, ptr %1) #7
  ret void
}