; Function Attrs: null_pointer_is_valid sspstrong uwtable
define hidden void @proto_register_someip_sd() local_unnamed_addr #0 {
  %1 = tail call i32 @proto_register_protocol(ptr noundef nonnull @.str.116, ptr noundef nonnull @.str.117, ptr noundef nonnull @.str.118)
  store i32 %1, ptr @proto_someip_sd, align 4
  tail call void @proto_register_field_array(i32 noundef %1, ptr noundef nonnull @proto_register_someip_sd.hf_sd, i32 noundef 48)
  tail call void @proto_register_subtree_array(ptr noundef nonnull @proto_register_someip_sd.ett_sd, i32 noundef 7)
  %2 = load i32, ptr @proto_someip_sd, align 4
  %3 = tail call ptr @expert_register_protocol(i32 noundef %2)
  tail call void @expert_register_field_array(ptr noundef %3, ptr noundef nonnull @proto_register_someip_sd.ei_sd, i32 noundef 12)
  %4 = tail call i32 @register_tap(ptr noundef nonnull @.str.119)
  store i32 %4, ptr @tap_someip_sd_entries, align 4
  %5 = load i32, ptr @proto_someip_sd, align 4
  %6 = tail call ptr @register_dissector(ptr noundef nonnull @.str.118, ptr noundef nonnull @dissect_someip_sd_pdu, i32 noundef %5)
  store ptr %6, ptr @someip_sd_handle, align 8
  %7 = load i32, ptr @proto_someip_sd, align 4
  %8 = tail call ptr @prefs_register_protocol(i32 noundef %7, ptr noundef null)
  %9 = tail call ptr @wmem_epan_scope()
  %10 = tail call i32 @range_convert_str(ptr noundef %9, ptr noundef nonnull @someip_ignore_ports_udp, ptr noundef nonnull @.str.120, i32 noundef 65535)
  tail call void @prefs_register_range_preference(ptr noundef %8, ptr noundef nonnull @.str.121, ptr noundef nonnull @.str.122, ptr noundef nonnull @.str.123, ptr noundef nonnull @someip_ignore_ports_udp, i32 noundef 65535)
  %11 = tail call ptr @wmem_epan_scope()
  %12 = tail call i32 @range_convert_str(ptr noundef %11, ptr noundef nonnull @someip_ignore_ports_tcp, ptr noundef nonnull @.str.120, i32 noundef 65535)
  tail call void @prefs_register_range_preference(ptr noundef %8, ptr noundef nonnull @.str.124, ptr noundef nonnull @.str.125, ptr noundef nonnull @.str.126, ptr noundef nonnull @someip_ignore_ports_tcp, i32 noundef 65535)
  ret void
}